; Function Attrs: mustprogress nounwind uwtable
define dso_local void @_ZN4node4quic7Session4SendENS_17BaseObjectPtrImplINS0_6PacketELb0EEERKNS0_11PathStorageE(ptr nocapture noundef nonnull align 8 dereferenceable(2616) %this, ptr nocapture noundef %packet, ptr nocapture noundef nonnull readonly align 8 dereferenceable(296) %path) local_unnamed_addr #5 align 2 {
entry:
  %agg.tmp = alloca %"class.node::BaseObjectPtrImpl.59", align 8
  %addrlen.i = getelementptr inbounds i8, ptr %path, i64 24
  %0 = load i32, ptr %addrlen.i, align 8
  %cmp.i.i = icmp ugt i32 %0, 128
  br i1 %cmp.i.i, label %do.body4.i.i, label %_ZN4node13SocketAddress6UpdateEPK8sockaddrm.exit.i

do.body4.i.i:                                     ; preds = %entry
  tail call void @_ZN4node6AssertERKNS_13AssertionInfoE(ptr noundef nonnull align 8 dereferenceable(24) @_ZZN4node13SocketAddress6UpdateEPK8sockaddrmE4args) #28
  tail call void @abort() #29
  unreachable

_ZN4node13SocketAddress6UpdateEPK8sockaddrm.exit.i: ; preds = %entry
  %conv.i = zext nneg i32 %0 to i64
  %remote.i = getelementptr inbounds i8, ptr %path, i64 16
  %1 = load ptr, ptr %remote.i, align 8
  %address_.i.i = getelementptr inbounds i8, ptr %this, i64 2288
  tail call void @llvm.memcpy.p0.p0.i64(ptr nonnull align 8 %address_.i.i, ptr align 2 %1, i64 %conv.i, i1 false)
  %addrlen8.i = getelementptr inbounds i8, ptr %path, i64 8
  %2 = load i32, ptr %addrlen8.i, align 8
  %cmp.i4.i = icmp ugt i32 %2, 128
  br i1 %cmp.i4.i, label %do.body4.i6.i, label %_ZN4node4quic7Session10UpdatePathERKNS0_11PathStorageE.exit

do.body4.i6.i:                                    ; preds = %_ZN4node13SocketAddress6UpdateEPK8sockaddrm.exit.i
  tail call void @_ZN4node6AssertERKNS_13AssertionInfoE(ptr noundef nonnull align 8 dereferenceable(24) @_ZZN4node13SocketAddress6UpdateEPK8sockaddrmE4args) #28
  tail call void @abort() #29
  unreachable

_ZN4node4quic7Session10UpdatePathERKNS0_11PathStorageE.exit: ; preds = %_ZN4node13SocketAddress6UpdateEPK8sockaddrm.exit.i
  %conv9.i = zext nneg i32 %2 to i64
  %3 = load ptr, ptr %path, align 8
  %address_.i5.i = getelementptr inbounds i8, ptr %this, i64 2152
  tail call void @llvm.memcpy.p0.p0.i64(ptr nonnull align 8 %address_.i5.i, ptr align 2 %3, i64 %conv9.i, i1 false)
  %4 = load i64, ptr %packet, align 8
  store i64 %4, ptr %agg.tmp, align 8
  store ptr null, ptr %packet, align 8
  call void @_ZN4node4quic7Session4SendENS_17BaseObjectPtrImplINS0_6PacketELb0EEE(ptr noundef nonnull align 8 dereferenceable(2616) %this, ptr noundef nonnull %agg.tmp)
  %5 = load ptr, ptr %agg.tmp, align 8
  %cmp.not.i = icmp eq ptr %5, null
  br i1 %cmp.not.i, label %_ZN4node17BaseObjectPtrImplINS_4quic6PacketELb0EED2Ev.exit, label %if.then.i

if.then.i:                                        ; preds = %_ZN4node4quic7Session10UpdatePathERKNS0_11PathStorageE.exit
  tail call void @_ZN4node10BaseObject17decrease_refcountEv(ptr noundef nonnull align 8 dereferenceable(32) %5) #28
  br label %_ZN4node17BaseObjectPtrImplINS_4quic6PacketELb0EED2Ev.exit

_ZN4node17BaseObjectPtrImplINS_4quic6PacketELb0EED2Ev.exit: ; preds = %_ZN4node4quic7Session10UpdatePathERKNS0_11PathStorageE.exit, %if.then.i
  ret void
}